Certificate Request:
    Data:
        Version: 0 (0x0)
        Subject: CN=SDLPAL Team
        Subject Public Key Info:
            Public Key Algorithm: rsaEncryption
                Public-Key: (2048 bit)
                Modulus:
                    00:a3:d5:43:35:a1:86:52:c2:aa:f8:3f:38:b8:ec:
                    93:5d:f6:b8:6a:14:6a:68:ac:7a:1f:a6:81:c3:c3:
                    e6:d8:ba:29:e9:0d:77:37:a2:ad:d2:bd:e4:aa:bc:
                    9d:f4:3c:b0:21:57:e1:5e:6a:fb:ba:5c:94:15:6e:
                    01:be:37:84:e5:1f:28:e6:d5:0b:e7:15:a1:39:36:
                    01:f8:68:43:ef:f0:03:72:61:e6:20:4b:c5:79:67:
                    df:4d:9c:61:56:0a:f0:34:3b:bc:02:5b:f6:a8:7e:
                    f7:a0:5f:e8:39:21:62:2e:1a:07:7c:22:d0:e0:7a:
                    b3:18:9a:da:75:02:e0:7d:13:37:40:b6:e1:26:1b:
                    b7:51:69:bc:45:c1:eb:17:3e:74:f1:29:41:ce:66:
                    05:32:da:bf:02:53:6a:6e:53:fc:09:ab:c2:5e:5a:
                    66:57:b6:4d:3f:4f:85:99:48:50:a9:08:9b:8e:a2:
                    da:3d:da:f5:35:42:43:a6:4b:72:35:76:8b:19:80:
                    59:94:d6:5c:a3:12:07:77:ed:1f:62:c4:7d:cd:ee:
                    d2:63:34:52:8f:4b:a8:b1:8b:68:3f:67:62:d3:70:
                    1f:ce:0c:2e:d1:a7:79:4a:0e:a1:51:0b:65:02:7d:
                    0f:ef:78:5e:04:f3:06:fa:30:63:68:02:ca:be:89:
                    20:c5
                Exponent: 65537 (0x10001)
        Attributes:
            a0:00
    Signature Algorithm: sha256WithRSAEncryption
         25:d3:6e:4a:13:3f:5b:5c:73:3a:43:a2:e5:03:b1:30:a6:03:
         9a:d0:09:36:66:d8:c8:c3:50:bb:a0:98:ed:c6:3e:44:53:76:
         0a:32:47:7a:f3:2f:a6:db:07:a4:d0:fd:6e:d0:c1:57:1f:00:
         86:3d:cf:c0:36:60:04:40:ef:0a:33:63:b3:e5:b0:1e:e6:f5:
         92:24:dd:0e:ba:07:74:da:53:3d:ff:a8:cf:1e:95:0f:ea:40:
         df:a6:00:6d:2d:d3:7c:ca:2a:21:de:99:c9:68:7b:57:51:77:
         ef:e0:83:c9:c3:dc:2a:e1:dd:ed:01:27:32:92:64:1a:55:e9:
         9d:24:5f:34:a3:40:d0:dc:73:f1:8d:8c:47:12:4a:c4:42:df:
         56:43:12:99:fb:f9:ee:7d:8c:45:46:94:66:9f:c0:d6:e5:3c:
         dd:fa:f2:41:47:b3:c2:0c:7d:c3:31:d9:b1:60:90:6f:b1:21:
         7c:99:b2:9c:40:c8:e6:69:37:2c:b3:fa:7f:d2:73:5c:45:d1:
         c2:4e:bc:39:24:d5:ea:0c:11:50:13:0e:96:8a:96:c6:3f:f8:
         75:aa:99:c4:0c:85:e2:ed:98:d3:0a:e9:fe:89:03:6e:97:c8:
         f3:0e:36:90:b4:5f:a8:de:5f:70:ba:85:a5:d1:e4:6a:89:e8:
         cb:2f:2f:9c
-----BEGIN CERTIFICATE REQUEST-----
MIICWzCCAUMCAQAwFjEUMBIGA1UEAxMLU0RMUEFMIFRlYW0wggEiMA0GCSqGSIb3
DQEBAQUAA4IBDwAwggEKAoIBAQCj1UM1oYZSwqr4Pzi47JNd9rhqFGporHofpoHD
w+bYuinpDXc3oq3SveSqvJ30PLAhV+Feavu6XJQVbgG+N4TlHyjm1QvnFaE5NgH4
aEPv8ANyYeYgS8V5Z99NnGFWCvA0O7wCW/aofvegX+g5IWIuGgd8ItDgerMYmtp1
AuB9EzdAtuEmG7dRabxFwesXPnTxKUHOZgUy2r8CU2puU/wJq8JeWmZXtk0/T4WZ
SFCpCJuOoto92vU1QkOmS3I1dosZgFmU1lyjEgd37R9ixH3N7tJjNFKPS6ixi2g/
Z2LTcB/ODC7Rp3lKDqFRC2UCfQ/veF4E8wb6MGNoAsq+iSDFAgMBAAGgADANBgkq
hkiG9w0BAQsFAAOCAQEAJdNuShM/W1xzOkOi5QOxMKYDmtAJNmbYyMNQu6CY7cY+
RFN2CjJHevMvptsHpND9btDBVx8Ahj3PwDZgBEDvCjNjs+WwHub1kiTdDroHdNpT
Pf+ozx6VD+pA36YAbS3TfMoqId6ZyWh7V1F37+CDycPcKuHd7QEnMpJkGlXpnSRf
NKNA0Nxz8Y2MRxJKxELfVkMSmfv57n2MRUaUZp/A1uU83fryQUezwgx9wzHZsWCQ
b7EhfJmynEDI5mk3LLP6f9JzXEXRwk68OSTV6gwRUBMOloqWxj/4daqZxAyF4u2Y
0wrp/okDbpfI8w42kLRfqN5fcLqFpdHkaonoyy8vnA==
-----END CERTIFICATE REQUEST-----
